target datalayout = "e-m:e-p270:32:32-p271:32:32-p272:64:64-i64:64-i128:128-f80:128-n8:16:32:64-S128"
target triple = "x86_64-pc-linux-gnu"

%struct.formnode = type { i16, i16, i16, i32, i32, i32, i32, i16, i16, i16, i32, ptr, ptr, ptr, ptr, ptr, ptr, ptr, ptr, ptr, ptr, ptr }
%struct.fieldnode = type { i16, i16, i16, i16, i16, i32, i32, i32, i32, i16, i16, i16, i16, i32, i32, i32, i32, ptr, ptr, ptr, ptr, ptr, ptr, ptr, ptr }

; Function Attrs: nounwind uwtable
define internal void @Adjust_Cursor_Position(ptr noundef %0, ptr noundef %1) #0 {
  %3 = alloca ptr, align 8
  %4 = alloca ptr, align 8
  %5 = alloca ptr, align 8
  %6 = alloca i32, align 4
  store ptr %0, ptr %3, align 8, !tbaa !4
  store ptr %1, ptr %4, align 8, !tbaa !55
  call void @llvm.lifetime.start.p0(i64 8, ptr %5) #9
  call void @llvm.lifetime.start.p0(i64 4, ptr %6) #9
  %7 = load ptr, ptr %3, align 8, !tbaa !4
  %8 = getelementptr inbounds nuw %struct.formnode, ptr %7, i32 0, i32 15
  %9 = load ptr, ptr %8, align 8, !tbaa !16
  store ptr %9, ptr %5, align 8, !tbaa !17
  %10 = load ptr, ptr %4, align 8, !tbaa !55
  %11 = load ptr, ptr %5, align 8, !tbaa !17
  %12 = getelementptr inbounds nuw %struct.fieldnode, ptr %11, i32 0, i32 23
  %13 = load ptr, ptr %12, align 8, !tbaa !54
  %14 = ptrtoint ptr %10 to i64
  %15 = ptrtoint ptr %13 to i64
  %16 = sub i64 %14, %15
  %17 = trunc i64 %16 to i32
  store i32 %17, ptr %6, align 4, !tbaa !35
  %18 = load i32, ptr %6, align 4, !tbaa !35
  %19 = load ptr, ptr %5, align 8, !tbaa !17
  %20 = getelementptr inbounds nuw %struct.fieldnode, ptr %19, i32 0, i32 6
  %21 = load i32, ptr %20, align 8, !tbaa !29
  %22 = sdiv i32 %18, %21
  %23 = load ptr, ptr %3, align 8, !tbaa !4
  %24 = getelementptr inbounds nuw %struct.formnode, ptr %23, i32 0, i32 3
  store i32 %22, ptr %24, align 8, !tbaa !21
  %25 = load i32, ptr %6, align 4, !tbaa !35
  %26 = load ptr, ptr %5, align 8, !tbaa !17
  %27 = getelementptr inbounds nuw %struct.fieldnode, ptr %26, i32 0, i32 2
  %28 = load i16, ptr %27, align 4, !tbaa !30
  %29 = sext i16 %28 to i32
  %30 = load ptr, ptr %3, align 8, !tbaa !4
  %31 = getelementptr inbounds nuw %struct.formnode, ptr %30, i32 0, i32 3
  %32 = load i32, ptr %31, align 8, !tbaa !21
  %33 = mul nsw i32 %29, %32
  %34 = sub nsw i32 %25, %33
  %35 = load ptr, ptr %3, align 8, !tbaa !4
  %36 = getelementptr inbounds nuw %struct.formnode, ptr %35, i32 0, i32 4
  store i32 %34, ptr %36, align 4, !tbaa !22
  %37 = load ptr, ptr %5, align 8, !tbaa !17
  %38 = getelementptr inbounds nuw %struct.fieldnode, ptr %37, i32 0, i32 5
  %39 = load i32, ptr %38, align 4, !tbaa !27
  %40 = load ptr, ptr %3, align 8, !tbaa !4
  %41 = getelementptr inbounds nuw %struct.formnode, ptr %40, i32 0, i32 3
  %42 = load i32, ptr %41, align 8, !tbaa !21
  %43 = icmp slt i32 %39, %42
  br i1 %43, label %44, label %47

44:                                               ; preds = %2
  %45 = load ptr, ptr %3, align 8, !tbaa !4
  %46 = getelementptr inbounds nuw %struct.formnode, ptr %45, i32 0, i32 3
  store i32 0, ptr %46, align 8, !tbaa !21
  br label %47

47:                                               ; preds = %44, %2
  call void @llvm.lifetime.end.p0(i64 4, ptr %6) #9
  call void @llvm.lifetime.end.p0(i64 8, ptr %5) #9
  ret void
}

; Function Attrs: nounwind uwtable
define internal ptr @After_Last_Whitespace_Character(ptr noundef %0, i32 noundef %1) #0 {
  %3 = alloca ptr, align 8
  %4 = alloca i32, align 4
  %5 = alloca ptr, align 8
  store ptr %0, ptr %3, align 8, !tbaa !55
  store i32 %1, ptr %4, align 4, !tbaa !35
  call void @llvm.lifetime.start.p0(i64 8, ptr %5) #9
  %6 = load ptr, ptr %3, align 8, !tbaa !55
  %7 = load i32, ptr %4, align 4, !tbaa !35
  %8 = sext i32 %7 to i64
  %9 = getelementptr inbounds i8, ptr %6, i64 %8
  store ptr %9, ptr %5, align 8, !tbaa !55
  br label %10

10:                                               ; preds = %23, %2
  %11 = load ptr, ptr %5, align 8, !tbaa !55
  %12 = load ptr, ptr %3, align 8, !tbaa !55
  %13 = icmp ugt ptr %11, %12
  br i1 %13, label %14, label %21

14:                                               ; preds = %10
  %15 = load ptr, ptr %5, align 8, !tbaa !55
  %16 = getelementptr inbounds i8, ptr %15, i64 -1
  %17 = load i8, ptr %16, align 1, !tbaa !65
  %18 = sext i8 %17 to i32
  %19 = icmp eq i32 %18, 32
  %20 = xor i1 %19, true
  br label %21

21:                                               ; preds = %14, %10
  %22 = phi i1 [ false, %10 ], [ %20, %14 ]
  br i1 %22, label %23, label %26

23:                                               ; preds = %21
  %24 = load ptr, ptr %5, align 8, !tbaa !55
  %25 = getelementptr inbounds i8, ptr %24, i32 -1
  store ptr %25, ptr %5, align 8, !tbaa !55
  br label %10, !llvm.loop !130

26:                                               ; preds = %21
  %27 = load ptr, ptr %5, align 8, !tbaa !55
  call void @llvm.lifetime.end.p0(i64 8, ptr %5) #9
  ret ptr %27
}

; Function Attrs: nounwind uwtable
define internal ptr @After_End_Of_Data(ptr noundef %0, i32 noundef %1) #0 {
  %3 = alloca ptr, align 8
  %4 = alloca i32, align 4
  %5 = alloca ptr, align 8
  store ptr %0, ptr %3, align 8, !tbaa !55
  store i32 %1, ptr %4, align 4, !tbaa !35
  call void @llvm.lifetime.start.p0(i64 8, ptr %5) #9
  %6 = load ptr, ptr %3, align 8, !tbaa !55
  %7 = load i32, ptr %4, align 4, !tbaa !35
  %8 = sext i32 %7 to i64
  %9 = getelementptr inbounds i8, ptr %6, i64 %8
  store ptr %9, ptr %5, align 8, !tbaa !55
  br label %10

10:                                               ; preds = %22, %2
  %11 = load ptr, ptr %5, align 8, !tbaa !55
  %12 = load ptr, ptr %3, align 8, !tbaa !55
  %13 = icmp ugt ptr %11, %12
  br i1 %13, label %14, label %20

14:                                               ; preds = %10
  %15 = load ptr, ptr %5, align 8, !tbaa !55
  %16 = getelementptr inbounds i8, ptr %15, i64 -1
  %17 = load i8, ptr %16, align 1, !tbaa !65
  %18 = sext i8 %17 to i32
  %19 = icmp eq i32 %18, 32
  br label %20

20:                                               ; preds = %14, %10
  %21 = phi i1 [ false, %10 ], [ %19, %14 ]
  br i1 %21, label %22, label %25

22:                                               ; preds = %20
  %23 = load ptr, ptr %5, align 8, !tbaa !55
  %24 = getelementptr inbounds i8, ptr %23, i32 -1
  store ptr %24, ptr %5, align 8, !tbaa !55
  br label %10, !llvm.loop !116

25:                                               ; preds = %20
  %26 = load ptr, ptr %5, align 8, !tbaa !55
  call void @llvm.lifetime.end.p0(i64 8, ptr %5) #9
  ret ptr %26
}

; Function Attrs: nounwind uwtable
define internal i32 @IFN_Previous_Word(ptr noundef %0) #0 {
  %2 = alloca ptr, align 8
  %3 = alloca ptr, align 8
  %4 = alloca ptr, align 8
  %5 = alloca ptr, align 8
  %6 = alloca ptr, align 8
  %7 = alloca i8, align 1
  store ptr %0, ptr %2, align 8, !tbaa !4
  call void @llvm.lifetime.start.p0(i64 8, ptr %3) #9
  %8 = load ptr, ptr %2, align 8, !tbaa !4
  %9 = getelementptr inbounds nuw %struct.formnode, ptr %8, i32 0, i32 15
  %10 = load ptr, ptr %9, align 8, !tbaa !16
  store ptr %10, ptr %3, align 8, !tbaa !17
  call void @llvm.lifetime.start.p0(i64 8, ptr %4) #9
  %11 = load ptr, ptr %2, align 8, !tbaa !4
  %12 = getelementptr inbounds nuw %struct.formnode, ptr %11, i32 0, i32 15
  %13 = load ptr, ptr %12, align 8, !tbaa !16
  %14 = getelementptr inbounds nuw %struct.fieldnode, ptr %13, i32 0, i32 23
  %15 = load ptr, ptr %14, align 8, !tbaa !54
  %16 = load ptr, ptr %2, align 8, !tbaa !4
  %17 = getelementptr inbounds nuw %struct.formnode, ptr %16, i32 0, i32 15
  %18 = load ptr, ptr %17, align 8, !tbaa !16
  %19 = getelementptr inbounds nuw %struct.fieldnode, ptr %18, i32 0, i32 5
  %20 = load i32, ptr %19, align 4, !tbaa !27
  %21 = load ptr, ptr %2, align 8, !tbaa !4
  %22 = getelementptr inbounds nuw %struct.formnode, ptr %21, i32 0, i32 15
  %23 = load ptr, ptr %22, align 8, !tbaa !16
  %24 = getelementptr inbounds nuw %struct.fieldnode, ptr %23, i32 0, i32 6
  %25 = load i32, ptr %24, align 8, !tbaa !29
  %26 = mul nsw i32 %20, %25
  %27 = add nsw i32 1, %26
  %28 = mul nsw i32 0, %27
  %29 = sext i32 %28 to i64
  %30 = getelementptr inbounds i8, ptr %15, i64 %29
  %31 = load ptr, ptr %2, align 8, !tbaa !4
  %32 = getelementptr inbounds nuw %struct.formnode, ptr %31, i32 0, i32 3
  %33 = load i32, ptr %32, align 8, !tbaa !21
  %34 = load ptr, ptr %2, align 8, !tbaa !4
  %35 = getelementptr inbounds nuw %struct.formnode, ptr %34, i32 0, i32 15
  %36 = load ptr, ptr %35, align 8, !tbaa !16
  %37 = getelementptr inbounds nuw %struct.fieldnode, ptr %36, i32 0, i32 6
  %38 = load i32, ptr %37, align 8, !tbaa !29
  %39 = mul nsw i32 %33, %38
  %40 = sext i32 %39 to i64
  %41 = getelementptr inbounds i8, ptr %30, i64 %40
  %42 = load ptr, ptr %2, align 8, !tbaa !4
  %43 = getelementptr inbounds nuw %struct.formnode, ptr %42, i32 0, i32 4
  %44 = load i32, ptr %43, align 4, !tbaa !22
  %45 = sext i32 %44 to i64
  %46 = getelementptr inbounds i8, ptr %41, i64 %45
  store ptr %46, ptr %4, align 8, !tbaa !55
  call void @llvm.lifetime.start.p0(i64 8, ptr %5) #9
  call void @llvm.lifetime.start.p0(i64 8, ptr %6) #9
  call void @llvm.lifetime.start.p0(i64 1, ptr %7) #9
  store i8 0, ptr %7, align 1, !tbaa !58
  %47 = load ptr, ptr %2, align 8, !tbaa !4
  call void @Synchronize_Buffer(ptr noundef %47)
  %48 = load ptr, ptr %3, align 8, !tbaa !17
  %49 = getelementptr inbounds nuw %struct.fieldnode, ptr %48, i32 0, i32 23
  %50 = load ptr, ptr %49, align 8, !tbaa !54
  %51 = load ptr, ptr %4, align 8, !tbaa !55
  %52 = load ptr, ptr %3, align 8, !tbaa !17
  %53 = getelementptr inbounds nuw %struct.fieldnode, ptr %52, i32 0, i32 23
  %54 = load ptr, ptr %53, align 8, !tbaa !54
  %55 = ptrtoint ptr %51 to i64
  %56 = ptrtoint ptr %54 to i64
  %57 = sub i64 %55, %56
  %58 = trunc i64 %57 to i32
  %59 = call ptr @After_End_Of_Data(ptr noundef %50, i32 noundef %58)
  store ptr %59, ptr %5, align 8, !tbaa !55
  %60 = load ptr, ptr %5, align 8, !tbaa !55
  %61 = load ptr, ptr %4, align 8, !tbaa !55
  %62 = icmp eq ptr %60, %61
  br i1 %62, label %63, label %64

63:                                               ; preds = %1
  store i8 1, ptr %7, align 1, !tbaa !58
  br label %64

64:                                               ; preds = %63, %1
  %65 = load ptr, ptr %3, align 8, !tbaa !17
  %66 = getelementptr inbounds nuw %struct.fieldnode, ptr %65, i32 0, i32 23
  %67 = load ptr, ptr %66, align 8, !tbaa !54
  %68 = load ptr, ptr %5, align 8, !tbaa !55
  %69 = load ptr, ptr %3, align 8, !tbaa !17
  %70 = getelementptr inbounds nuw %struct.fieldnode, ptr %69, i32 0, i32 23
  %71 = load ptr, ptr %70, align 8, !tbaa !54
  %72 = ptrtoint ptr %68 to i64
  %73 = ptrtoint ptr %71 to i64
  %74 = sub i64 %72, %73
  %75 = trunc i64 %74 to i32
  %76 = call ptr @After_Last_Whitespace_Character(ptr noundef %67, i32 noundef %75)
  store ptr %76, ptr %6, align 8, !tbaa !55
  %77 = load i8, ptr %7, align 1, !tbaa !58, !range !60, !noundef !61
  %78 = trunc i8 %77 to i1
  br i1 %78, label %79, label %104

79:                                               ; preds = %64
  %80 = load ptr, ptr %3, align 8, !tbaa !17
  %81 = getelementptr inbounds nuw %struct.fieldnode, ptr %80, i32 0, i32 23
  %82 = load ptr, ptr %81, align 8, !tbaa !54
  %83 = load ptr, ptr %6, align 8, !tbaa !55
  %84 = load ptr, ptr %3, align 8, !tbaa !17
  %85 = getelementptr inbounds nuw %struct.fieldnode, ptr %84, i32 0, i32 23
  %86 = load ptr, ptr %85, align 8, !tbaa !54
  %87 = ptrtoint ptr %83 to i64
  %88 = ptrtoint ptr %86 to i64
  %89 = sub i64 %87, %88
  %90 = trunc i64 %89 to i32
  %91 = call ptr @After_End_Of_Data(ptr noundef %82, i32 noundef %90)
  store ptr %91, ptr %5, align 8, !tbaa !55
  %92 = load ptr, ptr %3, align 8, !tbaa !17
  %93 = getelementptr inbounds nuw %struct.fieldnode, ptr %92, i32 0, i32 23
  %94 = load ptr, ptr %93, align 8, !tbaa !54
  %95 = load ptr, ptr %5, align 8, !tbaa !55
  %96 = load ptr, ptr %3, align 8, !tbaa !17
  %97 = getelementptr inbounds nuw %struct.fieldnode, ptr %96, i32 0, i32 23
  %98 = load ptr, ptr %97, align 8, !tbaa !54
  %99 = ptrtoint ptr %95 to i64
  %100 = ptrtoint ptr %98 to i64
  %101 = sub i64 %99, %100
  %102 = trunc i64 %101 to i32
  %103 = call ptr @After_Last_Whitespace_Character(ptr noundef %94, i32 noundef %102)
  store ptr %103, ptr %6, align 8, !tbaa !55
  br label %104

104:                                              ; preds = %79, %64
  %105 = load ptr, ptr %2, align 8, !tbaa !4
  %106 = load ptr, ptr %6, align 8, !tbaa !55
  call void @Adjust_Cursor_Position(ptr noundef %105, ptr noundef %106)
  call void @llvm.lifetime.end.p0(i64 1, ptr %7) #9
  call void @llvm.lifetime.end.p0(i64 8, ptr %6) #9
  call void @llvm.lifetime.end.p0(i64 8, ptr %5) #9
  call void @llvm.lifetime.end.p0(i64 8, ptr %4) #9
  call void @llvm.lifetime.end.p0(i64 8, ptr %3) #9
  ret i32 0
}