; Function Attrs: nounwind uwtable
define internal noundef i32 @IFN_Previous_Word(ptr noundef captures(none) %0) #0 {
  %2 = getelementptr inbounds nuw i8, ptr %0, i64 72
  %3 = load ptr, ptr %2, align 8, !tbaa !14
  %4 = getelementptr inbounds nuw i8, ptr %3, i64 104
  %5 = load ptr, ptr %4, align 8, !tbaa !52
  %6 = getelementptr inbounds nuw i8, ptr %3, i64 16
  %7 = load i32, ptr %6, align 8, !tbaa !26
  %8 = getelementptr inbounds nuw i8, ptr %0, i64 8
  %9 = load i32, ptr %8, align 8, !tbaa !17
  %10 = mul nsw i32 %9, %7
  %11 = sext i32 %10 to i64
  %12 = getelementptr inbounds i8, ptr %5, i64 %11
  %13 = getelementptr inbounds nuw i8, ptr %0, i64 12
  %14 = load i32, ptr %13, align 4, !tbaa !18
  %15 = sext i32 %14 to i64
  %16 = getelementptr inbounds i8, ptr %12, i64 %15
  tail call fastcc void @Synchronize_Buffer(ptr noundef %0)
  %17 = load ptr, ptr %4, align 8, !tbaa !52
  %18 = ptrtoint ptr %16 to i64
  %19 = ptrtoint ptr %17 to i64
  %20 = sub i64 %18, %19
  %sext = shl i64 %20, 32
  %21 = ashr exact i64 %sext, 32
  %22 = getelementptr inbounds i8, ptr %17, i64 %21
  br label %23

23:                                               ; preds = %25, %1
  %.0.i = phi ptr [ %22, %1 ], [ %26, %25 ]
  %24 = icmp ugt ptr %.0.i, %17
  br i1 %24, label %25, label %After_End_Of_Data.exit

25:                                               ; preds = %23
  %26 = getelementptr inbounds i8, ptr %.0.i, i64 -1
  %27 = load i8, ptr %26, align 1, !tbaa !54
  %28 = icmp eq i8 %27, 32
  br i1 %28, label %23, label %After_End_Of_Data.exit, !llvm.loop !57

After_End_Of_Data.exit:                           ; preds = %23, %25
  %29 = icmp eq ptr %.0.i, %16
  %30 = ptrtoint ptr %.0.i to i64
  %31 = sub i64 %30, %19
  %sext31 = shl i64 %31, 32
  %32 = ashr exact i64 %sext31, 32
  %33 = getelementptr inbounds i8, ptr %17, i64 %32
  br label %34

34:                                               ; preds = %36, %After_End_Of_Data.exit
  %.0.i25 = phi ptr [ %33, %After_End_Of_Data.exit ], [ %37, %36 ]
  %35 = icmp ugt ptr %.0.i25, %17
  br i1 %35, label %36, label %After_Last_Whitespace_Character.exit

36:                                               ; preds = %34
  %37 = getelementptr inbounds i8, ptr %.0.i25, i64 -1
  %38 = load i8, ptr %37, align 1, !tbaa !54
  %.not.i = icmp eq i8 %38, 32
  br i1 %.not.i, label %After_Last_Whitespace_Character.exit, label %34, !llvm.loop !121

After_Last_Whitespace_Character.exit:             ; preds = %34, %36
  br i1 %29, label %39, label %After_Last_Whitespace_Character.exit30

39:                                               ; preds = %After_Last_Whitespace_Character.exit
  %40 = ptrtoint ptr %.0.i25 to i64
  %41 = sub i64 %40, %19
  %sext32 = shl i64 %41, 32
  %42 = ashr exact i64 %sext32, 32
  %43 = getelementptr inbounds i8, ptr %17, i64 %42
  br label %44

44:                                               ; preds = %46, %39
  %.0.i26 = phi ptr [ %43, %39 ], [ %47, %46 ]
  %45 = icmp ugt ptr %.0.i26, %17
  br i1 %45, label %46, label %After_End_Of_Data.exit27

46:                                               ; preds = %44
  %47 = getelementptr inbounds i8, ptr %.0.i26, i64 -1
  %48 = load i8, ptr %47, align 1, !tbaa !54
  %49 = icmp eq i8 %48, 32
  br i1 %49, label %44, label %After_End_Of_Data.exit27, !llvm.loop !57

After_End_Of_Data.exit27:                         ; preds = %44, %46
  %50 = ptrtoint ptr %.0.i26 to i64
  %51 = sub i64 %50, %19
  %sext33 = shl i64 %51, 32
  %52 = ashr exact i64 %sext33, 32
  %53 = getelementptr inbounds i8, ptr %17, i64 %52
  br label %54

54:                                               ; preds = %56, %After_End_Of_Data.exit27
  %.0.i28 = phi ptr [ %53, %After_End_Of_Data.exit27 ], [ %57, %56 ]
  %55 = icmp ugt ptr %.0.i28, %17
  br i1 %55, label %56, label %After_Last_Whitespace_Character.exit30

56:                                               ; preds = %54
  %57 = getelementptr inbounds i8, ptr %.0.i28, i64 -1
  %58 = load i8, ptr %57, align 1, !tbaa !54
  %.not.i29 = icmp eq i8 %58, 32
  br i1 %.not.i29, label %After_Last_Whitespace_Character.exit30, label %54, !llvm.loop !121

After_Last_Whitespace_Character.exit30:           ; preds = %56, %54, %After_Last_Whitespace_Character.exit
  %.024 = phi ptr [ %.0.i25, %After_Last_Whitespace_Character.exit ], [ %.0.i28, %54 ], [ %.0.i28, %56 ]
  %59 = load ptr, ptr %2, align 8, !tbaa !14
  %60 = getelementptr inbounds nuw i8, ptr %59, i64 104
  %61 = load ptr, ptr %60, align 8, !tbaa !52
  %62 = ptrtoint ptr %.024 to i64
  %63 = ptrtoint ptr %61 to i64
  %64 = sub i64 %62, %63
  %65 = trunc i64 %64 to i32
  %66 = getelementptr inbounds nuw i8, ptr %59, i64 16
  %67 = load i32, ptr %66, align 8, !tbaa !26
  %68 = sdiv i32 %65, %67
  store i32 %68, ptr %8, align 8, !tbaa !17
  %69 = getelementptr inbounds nuw i8, ptr %59, i64 4
  %70 = load i16, ptr %69, align 4, !tbaa !27
  %71 = sext i16 %70 to i32
  %72 = mul nsw i32 %68, %71
  %73 = sub nsw i32 %65, %72
  store i32 %73, ptr %13, align 4, !tbaa !18
  %74 = getelementptr inbounds nuw i8, ptr %59, i64 12
  %75 = load i32, ptr %74, align 4, !tbaa !24
  %76 = icmp slt i32 %75, %68
  br i1 %76, label %77, label %Adjust_Cursor_Position.exit

77:                                               ; preds = %After_Last_Whitespace_Character.exit30
  store i32 0, ptr %8, align 8, !tbaa !17
  br label %Adjust_Cursor_Position.exit

Adjust_Cursor_Position.exit:                      ; preds = %After_Last_Whitespace_Character.exit30, %77
  ret i32 0
}